target datalayout = "e-m:e-p270:32:32-p271:32:32-p272:64:64-i64:64-i128:128-f80:128-n8:16:32:64-S128"
target triple = "x86_64-pc-linux-gnu"

%class.anon.925 = type { ptr, ptr, ptr }

; Function Attrs: inlinehint mustprogress uwtable
define internal void @"_ZZZ32test_submodule_virtual_functionsRN8pybind117module_EENK3$_0clERKN9AdderBase4DataES6_S6_RKS3_RKSt8functionIFvS6_EEENKUlS6_E_clES6_"(ptr noundef nonnull align 8 dereferenceable(24) %0, ptr noundef nonnull align 1 dereferenceable(1) %1) #10 align 2 {
  %3 = alloca ptr, align 8
  %4 = alloca ptr, align 8
  store ptr %0, ptr %3, align 8, !tbaa !85
  store ptr %1, ptr %4, align 8, !tbaa !2521
  %5 = load ptr, ptr %3, align 8
  %6 = getelementptr inbounds nuw %class.anon.925, ptr %5, i32 0, i32 0
  %7 = load ptr, ptr %6, align 8, !tbaa !2652
  %8 = load ptr, ptr %4, align 8, !tbaa !2521
  %9 = getelementptr inbounds nuw %class.anon.925, ptr %5, i32 0, i32 1
  %10 = load ptr, ptr %9, align 8, !tbaa !2654
  %11 = getelementptr inbounds nuw %class.anon.925, ptr %5, i32 0, i32 2
  %12 = load ptr, ptr %11, align 8, !tbaa !2655
  %13 = load ptr, ptr %7, align 8, !tbaa !118
  %14 = getelementptr inbounds ptr, ptr %13, i64 0
  %15 = load ptr, ptr %14, align 8
  call void %15(ptr noundef nonnull align 8 dereferenceable(8) %7, ptr noundef nonnull align 1 dereferenceable(1) %8, ptr noundef nonnull align 1 dereferenceable(1) %10, ptr noundef nonnull align 8 dereferenceable(32) %12)
  ret void
}

; Function Attrs: mustprogress nounwind uwtable
define linkonce_odr noundef ptr @_ZNKSt9_Any_data9_M_accessEv(ptr noundef nonnull align 8 dereferenceable(16) %0) #5 comdat align 2 {
  %2 = alloca ptr, align 8
  store ptr %0, ptr %2, align 8, !tbaa !2526
  %3 = load ptr, ptr %2, align 8
  %4 = getelementptr inbounds [16 x i8], ptr %3, i64 0, i64 0
  ret ptr %4
}

; Function Attrs: mustprogress uwtable
define internal void @"_ZSt13__invoke_implIvRZZ32test_submodule_virtual_functionsRN8pybind117module_EENK3$_0clERKN9AdderBase4DataES7_S7_RKS4_RKSt8functionIFvS7_EEEUlS7_E_JS7_EET_St14__invoke_otherOT0_DpOT1_"(ptr noundef nonnull align 8 dereferenceable(24) %0, ptr noundef nonnull align 1 dereferenceable(1) %1) #4 {
  %3 = alloca ptr, align 8
  %4 = alloca ptr, align 8
  store ptr %0, ptr %3, align 8, !tbaa !85
  store ptr %1, ptr %4, align 8, !tbaa !2521
  %5 = load ptr, ptr %3, align 8, !tbaa !85
  %6 = load ptr, ptr %4, align 8, !tbaa !2521
  call void @"_ZZZ32test_submodule_virtual_functionsRN8pybind117module_EENK3$_0clERKN9AdderBase4DataES6_S6_RKS3_RKSt8functionIFvS6_EEENKUlS6_E_clES6_"(ptr noundef nonnull align 8 dereferenceable(24) %5, ptr noundef nonnull align 1 dereferenceable(1) %6)
  ret void
}

; Function Attrs: mustprogress nounwind uwtable
define internal noundef nonnull align 8 dereferenceable(8) ptr @"_ZNKSt9_Any_data9_M_accessIPZZ32test_submodule_virtual_functionsRN8pybind117module_EENK3$_0clERKN9AdderBase4DataES8_S8_RKS5_RKSt8functionIFvS8_EEEUlS8_E_EERKT_v"(ptr noundef nonnull align 8 dereferenceable(16) %0) #5 align 2 {
  %2 = alloca ptr, align 8
  store ptr %0, ptr %2, align 8, !tbaa !2526
  %3 = load ptr, ptr %2, align 8
  %4 = call noundef ptr @_ZNKSt9_Any_data9_M_accessEv(ptr noundef nonnull align 8 dereferenceable(16) %3) #24
  ret ptr %4
}

; Function Attrs: mustprogress uwtable
define internal void @"_ZSt10__invoke_rIvRZZ32test_submodule_virtual_functionsRN8pybind117module_EENK3$_0clERKN9AdderBase4DataES7_S7_RKS4_RKSt8functionIFvS7_EEEUlS7_E_JS7_EENSt9enable_ifIX16is_invocable_r_vIT_T0_DpT1_EESI_E4typeEOSJ_DpOSK_"(ptr noundef nonnull align 8 dereferenceable(24) %0, ptr noundef nonnull align 1 dereferenceable(1) %1) #4 {
  %3 = alloca ptr, align 8
  %4 = alloca ptr, align 8
  store ptr %0, ptr %3, align 8, !tbaa !85
  store ptr %1, ptr %4, align 8, !tbaa !2521
  %5 = load ptr, ptr %3, align 8, !tbaa !85
  %6 = load ptr, ptr %4, align 8, !tbaa !2521
  call void @"_ZSt13__invoke_implIvRZZ32test_submodule_virtual_functionsRN8pybind117module_EENK3$_0clERKN9AdderBase4DataES7_S7_RKS4_RKSt8functionIFvS7_EEEUlS7_E_JS7_EET_St14__invoke_otherOT0_DpOT1_"(ptr noundef nonnull align 8 dereferenceable(24) %5, ptr noundef nonnull align 1 dereferenceable(1) %6)
  ret void
}

; Function Attrs: mustprogress nounwind uwtable
define internal noundef ptr @"_ZNSt14_Function_base13_Base_managerIZZ32test_submodule_virtual_functionsRN8pybind117module_EENK3$_0clERKN9AdderBase4DataES8_S8_RKS5_RKSt8functionIFvS8_EEEUlS8_E_E14_M_get_pointerERKSt9_Any_data"(ptr noundef nonnull align 8 dereferenceable(16) %0) #5 align 2 {
  %2 = alloca ptr, align 8
  store ptr %0, ptr %2, align 8, !tbaa !2526
  %3 = load ptr, ptr %2, align 8, !tbaa !2526
  %4 = call noundef nonnull align 8 dereferenceable(8) ptr @"_ZNKSt9_Any_data9_M_accessIPZZ32test_submodule_virtual_functionsRN8pybind117module_EENK3$_0clERKN9AdderBase4DataES8_S8_RKS5_RKSt8functionIFvS8_EEEUlS8_E_EERKT_v"(ptr noundef nonnull align 8 dereferenceable(16) %3) #24
  %5 = load ptr, ptr %4, align 8, !tbaa !85
  ret ptr %5
}

; Function Attrs: mustprogress uwtable
define internal void @"_ZNSt17_Function_handlerIFvRKN9AdderBase4DataEEZZ32test_submodule_virtual_functionsRN8pybind117module_EENK3$_0clES3_S3_S3_RKS0_RKSt8functionIS4_EEUlS3_E_E9_M_invokeERKSt9_Any_dataS3_"(ptr noundef nonnull align 8 dereferenceable(16) %0, ptr noundef nonnull align 1 dereferenceable(1) %1) #4 align 2 {
  %3 = alloca ptr, align 8
  %4 = alloca ptr, align 8
  store ptr %0, ptr %3, align 8, !tbaa !2526
  store ptr %1, ptr %4, align 8, !tbaa !2521
  %5 = load ptr, ptr %3, align 8, !tbaa !2526
  %6 = call noundef ptr @"_ZNSt14_Function_base13_Base_managerIZZ32test_submodule_virtual_functionsRN8pybind117module_EENK3$_0clERKN9AdderBase4DataES8_S8_RKS5_RKSt8functionIFvS8_EEEUlS8_E_E14_M_get_pointerERKSt9_Any_data"(ptr noundef nonnull align 8 dereferenceable(16) %5) #24
  %7 = load ptr, ptr %4, align 8, !tbaa !2521
  call void @"_ZSt10__invoke_rIvRZZ32test_submodule_virtual_functionsRN8pybind117module_EENK3$_0clERKN9AdderBase4DataES7_S7_RKS4_RKSt8functionIFvS7_EEEUlS7_E_JS7_EENSt9enable_ifIX16is_invocable_r_vIT_T0_DpT1_EESI_E4typeEOSJ_DpOSK_"(ptr noundef nonnull align 8 dereferenceable(24) %6, ptr noundef nonnull align 1 dereferenceable(1) %7)
  ret void
}