; Function Attrs: mustprogress uwtable
define internal void @"_ZNSt17_Function_handlerIFvRKN9AdderBase4DataEEZZ32test_submodule_virtual_functionsRN8pybind117module_EENK3$_0clES3_S3_S3_RKS0_RKSt8functionIS4_EEUlS3_E_E9_M_invokeERKSt9_Any_dataS3_"(ptr noundef nonnull readonly align 8 captures(none) dereferenceable(16) %0, ptr noundef nonnull align 1 dereferenceable(1) %1) #5 align 2 {
  %.val = load ptr, ptr %0, align 8, !tbaa !127
  %3 = load ptr, ptr %.val, align 8, !tbaa !2403
  %4 = getelementptr inbounds nuw i8, ptr %.val, i64 8
  %5 = load ptr, ptr %4, align 8, !tbaa !2405
  %6 = getelementptr inbounds nuw i8, ptr %.val, i64 16
  %7 = load ptr, ptr %6, align 8, !tbaa !2406
  %8 = load ptr, ptr %3, align 8, !tbaa !396
  %9 = load ptr, ptr %8, align 8
  tail call void %9(ptr noundef nonnull align 8 dereferenceable(8) %3, ptr noundef nonnull align 1 dereferenceable(1) %1, ptr noundef nonnull align 1 dereferenceable(1) %5, ptr noundef nonnull align 8 dereferenceable(32) %7)
  ret void
}